; Function Attrs: mustprogress nounwind willreturn uwtable
define void @Java_sun_font_StrikeCache_freeIntPointer(ptr nocapture noundef readnone %0, ptr nocapture noundef readnone %1, i32 noundef %2) local_unnamed_addr #6 {
  %.not = icmp eq i32 %2, 0
  br i1 %.not, label %7, label %4

4:                                                ; preds = %3
  %5 = sext i32 %2 to i64
  %6 = inttoptr i64 %5 to ptr
  tail call void @free(ptr noundef %6) #11
  br label %7

7:                                                ; preds = %4, %3
  ret void
}